S'grilles/novoban/novoban05.xsb'
p0
.(dp0
S'caisses'
p1
(lp2
(I2
I2
tp3
a(I3
I3
tp4
asS'cibles'
p5
(lp6
(I1
I2
tp7
a(I4
I2
tp8
asS'score'
p9
I9
sS'estFini'
p10
I00
sS'perso'
p11
(I3
I2
tp12
sS'murs'
p13
(lp14
(I2
I0
tp15
a(I3
I0
tp16
a(I4
I0
tp17
a(I5
I0
tp18
a(I0
I1
tp19
a(I1
I1
tp20
a(I2
I1
tp21
a(I5
I1
tp22
a(I0
I2
tp23
a(I5
I2
tp24
a(I0
I3
tp25
a(I2
I3
tp26
a(I5
I3
tp27
a(I0
I4
tp28
a(I5
I4
tp29
a(I0
I5
tp30
a(I1
I5
tp31
a(I2
I5
tp32
a(I5
I5
tp33
a(I2
I6
tp34
a(I3
I6
tp35
a(I4
I6
tp36
a(I5
I6
tp37
asS'historique'
p38
(lp39
((I2
I4
tp40
tp41
a((I3
I4
tp42
tp43
a((I4
I4
tp44
tp45
a((I4
I3
tp46
tp47
a((I3
I3
tp48
tp49
a((I4
I3
tp50
tp51
a((I4
I2
tp52
tp53
a((I4
I1
tp54
tp55
a((I3
I1
tp56
I1
g12
tp57
as.